target datalayout = "e-m:e-p270:32:32-p271:32:32-p272:64:64-i64:64-i128:128-f80:128-n8:16:32:64-S128"
target triple = "x86_64-pc-linux-gnu"

%struct._typeobject = type { %struct.PyVarObject, ptr, i64, i64, ptr, i64, ptr, ptr, ptr, ptr, ptr, ptr, ptr, ptr, ptr, ptr, ptr, ptr, ptr, i64, ptr, ptr, ptr, ptr, i64, ptr, ptr, ptr, ptr, ptr, ptr, ptr, ptr, ptr, i64, ptr, ptr, ptr, ptr, ptr, ptr, ptr, ptr, ptr, ptr, ptr, i32, ptr, ptr, i8, i16 }
%struct.PyVarObject = type { %struct._object, i64 }
%struct._object = type { %union.anon, ptr }
%union.anon = type { i64 }
%struct.anon = type { i32, i32 }
%struct.PyGC_Head = type { i64, i64 }

; Function Attrs: alwaysinline nounwind uwtable
define internal i32 @_Py_IsImmortal(ptr noundef %0) #4 {
  %2 = alloca ptr, align 8
  store ptr %0, ptr %2, align 8, !tbaa !4
  %3 = load ptr, ptr %2, align 8, !tbaa !4
  %4 = getelementptr inbounds nuw %struct._object, ptr %3, i32 0, i32 0
  %5 = getelementptr inbounds nuw %struct.anon, ptr %4, i32 0, i32 0
  %6 = load i32, ptr %5, align 8, !tbaa !27
  %7 = icmp slt i32 %6, 0
  %8 = zext i1 %7 to i32
  ret i32 %8
}

; Function Attrs: inlinehint nounwind uwtable
define internal void @_PyGCHead_SET_PREV(ptr noundef %0, ptr noundef %1) #3 {
  %3 = alloca ptr, align 8
  %4 = alloca ptr, align 8
  %5 = alloca i64, align 8
  store ptr %0, ptr %3, align 8, !tbaa !30
  store ptr %1, ptr %4, align 8, !tbaa !30
  call void @llvm.lifetime.start.p0(i64 8, ptr %5) #6
  %6 = load ptr, ptr %4, align 8, !tbaa !30
  %7 = ptrtoint ptr %6 to i64
  store i64 %7, ptr %5, align 8, !tbaa !15
  %8 = load ptr, ptr %3, align 8, !tbaa !30
  %9 = getelementptr inbounds nuw %struct.PyGC_Head, ptr %8, i32 0, i32 1
  %10 = load i64, ptr %9, align 8, !tbaa !164
  %11 = and i64 %10, 3
  %12 = load i64, ptr %5, align 8, !tbaa !15
  %13 = or i64 %11, %12
  %14 = load ptr, ptr %3, align 8, !tbaa !30
  %15 = getelementptr inbounds nuw %struct.PyGC_Head, ptr %14, i32 0, i32 1
  store i64 %13, ptr %15, align 8, !tbaa !164
  call void @llvm.lifetime.end.p0(i64 8, ptr %5) #6
  ret void
}

; Function Attrs: inlinehint nounwind uwtable
define internal void @_PyGCHead_SET_NEXT(ptr noundef %0, ptr noundef %1) #3 {
  %3 = alloca ptr, align 8
  %4 = alloca ptr, align 8
  %5 = alloca i64, align 8
  store ptr %0, ptr %3, align 8, !tbaa !30
  store ptr %1, ptr %4, align 8, !tbaa !30
  call void @llvm.lifetime.start.p0(i64 8, ptr %5) #6
  %6 = load ptr, ptr %4, align 8, !tbaa !30
  %7 = ptrtoint ptr %6 to i64
  store i64 %7, ptr %5, align 8, !tbaa !15
  %8 = load ptr, ptr %3, align 8, !tbaa !30
  %9 = getelementptr inbounds nuw %struct.PyGC_Head, ptr %8, i32 0, i32 0
  %10 = load i64, ptr %9, align 8, !tbaa !163
  %11 = and i64 %10, 3
  %12 = load i64, ptr %5, align 8, !tbaa !15
  %13 = or i64 %11, %12
  %14 = load ptr, ptr %3, align 8, !tbaa !30
  %15 = getelementptr inbounds nuw %struct.PyGC_Head, ptr %14, i32 0, i32 0
  store i64 %13, ptr %15, align 8, !tbaa !163
  call void @llvm.lifetime.end.p0(i64 8, ptr %5) #6
  ret void
}

; Function Attrs: inlinehint nounwind uwtable
define internal ptr @_PyGCHead_NEXT(ptr noundef %0) #3 {
  %2 = alloca ptr, align 8
  %3 = alloca i64, align 8
  store ptr %0, ptr %2, align 8, !tbaa !30
  call void @llvm.lifetime.start.p0(i64 8, ptr %3) #6
  %4 = load ptr, ptr %2, align 8, !tbaa !30
  %5 = getelementptr inbounds nuw %struct.PyGC_Head, ptr %4, i32 0, i32 0
  %6 = load i64, ptr %5, align 8, !tbaa !163
  %7 = and i64 %6, -4
  store i64 %7, ptr %3, align 8, !tbaa !15
  %8 = load i64, ptr %3, align 8, !tbaa !15
  %9 = inttoptr i64 %8 to ptr
  call void @llvm.lifetime.end.p0(i64 8, ptr %3) #6
  ret ptr %9
}

; Function Attrs: inlinehint nounwind uwtable
define internal ptr @_PyGCHead_PREV(ptr noundef %0) #3 {
  %2 = alloca ptr, align 8
  %3 = alloca i64, align 8
  store ptr %0, ptr %2, align 8, !tbaa !30
  call void @llvm.lifetime.start.p0(i64 8, ptr %3) #6
  %4 = load ptr, ptr %2, align 8, !tbaa !30
  %5 = getelementptr inbounds nuw %struct.PyGC_Head, ptr %4, i32 0, i32 1
  %6 = load i64, ptr %5, align 8, !tbaa !164
  %7 = and i64 %6, -4
  store i64 %7, ptr %3, align 8, !tbaa !15
  %8 = load i64, ptr %3, align 8, !tbaa !15
  %9 = inttoptr i64 %8 to ptr
  call void @llvm.lifetime.end.p0(i64 8, ptr %3) #6
  ret ptr %9
}

; Function Attrs: inlinehint nounwind uwtable
define internal ptr @_Py_AS_GC(ptr noundef %0) #3 {
  %2 = alloca ptr, align 8
  %3 = alloca ptr, align 8
  store ptr %0, ptr %2, align 8, !tbaa !4
  call void @llvm.lifetime.start.p0(i64 8, ptr %3) #6
  %4 = load ptr, ptr %2, align 8, !tbaa !4
  %5 = getelementptr i8, ptr %4, i64 -16
  store ptr %5, ptr %3, align 8, !tbaa !149
  %6 = load ptr, ptr %3, align 8, !tbaa !149
  call void @llvm.lifetime.end.p0(i64 8, ptr %3) #6
  ret ptr %6
}

; Function Attrs: alwaysinline nounwind uwtable
define internal void @Py_DECREF(ptr noundef %0) #4 {
  %2 = alloca ptr, align 8
  store ptr %0, ptr %2, align 8, !tbaa !4
  %3 = load ptr, ptr %2, align 8, !tbaa !4
  %4 = call i32 @_Py_IsImmortal(ptr noundef %3)
  %5 = icmp ne i32 %4, 0
  br i1 %5, label %6, label %7

6:                                                ; preds = %1
  br label %16

7:                                                ; preds = %1
  %8 = load ptr, ptr %2, align 8, !tbaa !4
  %9 = getelementptr inbounds nuw %struct._object, ptr %8, i32 0, i32 0
  %10 = getelementptr inbounds nuw %struct.anon, ptr %9, i32 0, i32 0
  %11 = load i32, ptr %10, align 8, !tbaa !27
  %12 = add i32 %11, -1
  store i32 %12, ptr %10, align 8, !tbaa !27
  %13 = icmp eq i32 %12, 0
  br i1 %13, label %14, label %16

14:                                               ; preds = %7
  %15 = load ptr, ptr %2, align 8, !tbaa !4
  call void @_Py_Dealloc(ptr noundef %15)
  br label %16

16:                                               ; preds = %6, %14, %7
  ret void
}

; Function Attrs: inlinehint nounwind uwtable
define internal void @_PyObject_GC_UNTRACK(ptr noundef %0) #3 {
  %2 = alloca ptr, align 8
  %3 = alloca ptr, align 8
  %4 = alloca ptr, align 8
  %5 = alloca ptr, align 8
  store ptr %0, ptr %2, align 8, !tbaa !4
  call void @llvm.lifetime.start.p0(i64 8, ptr %3) #6
  %6 = load ptr, ptr %2, align 8, !tbaa !4
  %7 = call ptr @_Py_AS_GC(ptr noundef %6)
  store ptr %7, ptr %3, align 8, !tbaa !30
  call void @llvm.lifetime.start.p0(i64 8, ptr %4) #6
  %8 = load ptr, ptr %3, align 8, !tbaa !30
  %9 = call ptr @_PyGCHead_PREV(ptr noundef %8)
  store ptr %9, ptr %4, align 8, !tbaa !30
  call void @llvm.lifetime.start.p0(i64 8, ptr %5) #6
  %10 = load ptr, ptr %3, align 8, !tbaa !30
  %11 = call ptr @_PyGCHead_NEXT(ptr noundef %10)
  store ptr %11, ptr %5, align 8, !tbaa !30
  %12 = load ptr, ptr %4, align 8, !tbaa !30
  %13 = load ptr, ptr %5, align 8, !tbaa !30
  call void @_PyGCHead_SET_NEXT(ptr noundef %12, ptr noundef %13)
  %14 = load ptr, ptr %5, align 8, !tbaa !30
  %15 = load ptr, ptr %4, align 8, !tbaa !30
  call void @_PyGCHead_SET_PREV(ptr noundef %14, ptr noundef %15)
  %16 = load ptr, ptr %3, align 8, !tbaa !30
  %17 = getelementptr inbounds nuw %struct.PyGC_Head, ptr %16, i32 0, i32 0
  store i64 0, ptr %17, align 8, !tbaa !163
  %18 = load ptr, ptr %3, align 8, !tbaa !30
  %19 = getelementptr inbounds nuw %struct.PyGC_Head, ptr %18, i32 0, i32 1
  %20 = load i64, ptr %19, align 8, !tbaa !164
  %21 = and i64 %20, 1
  store i64 %21, ptr %19, align 8, !tbaa !164
  call void @llvm.lifetime.end.p0(i64 8, ptr %5) #6
  call void @llvm.lifetime.end.p0(i64 8, ptr %4) #6
  call void @llvm.lifetime.end.p0(i64 8, ptr %3) #6
  ret void
}

; Function Attrs: inlinehint nounwind uwtable
define internal ptr @_Py_TYPE(ptr noundef %0) #3 {
  %2 = alloca ptr, align 8
  store ptr %0, ptr %2, align 8, !tbaa !4
  %3 = load ptr, ptr %2, align 8, !tbaa !4
  %4 = getelementptr inbounds nuw %struct._object, ptr %3, i32 0, i32 1
  %5 = load ptr, ptr %4, align 8, !tbaa !26
  ret ptr %5
}

; Function Attrs: nounwind uwtable
define internal void @generic_dealloc(ptr noundef %0) #0 {
  %2 = alloca ptr, align 8
  %3 = alloca ptr, align 8
  store ptr %0, ptr %2, align 8, !tbaa !4
  call void @llvm.lifetime.start.p0(i64 8, ptr %3) #6
  %4 = load ptr, ptr %2, align 8, !tbaa !4
  %5 = call ptr @_Py_TYPE(ptr noundef %4)
  store ptr %5, ptr %3, align 8, !tbaa !9
  %6 = load ptr, ptr %2, align 8, !tbaa !4
  call void @_PyObject_GC_UNTRACK(ptr noundef %6)
  %7 = load ptr, ptr %2, align 8, !tbaa !4
  %8 = call ptr @_Py_TYPE(ptr noundef %7)
  %9 = getelementptr inbounds nuw %struct._typeobject, ptr %8, i32 0, i32 38
  %10 = load ptr, ptr %9, align 8, !tbaa !35
  %11 = load ptr, ptr %2, align 8, !tbaa !4
  call void %10(ptr noundef %11)
  %12 = load ptr, ptr %3, align 8, !tbaa !9
  call void @Py_DECREF(ptr noundef %12)
  call void @llvm.lifetime.end.p0(i64 8, ptr %3) #6
  ret void
}