; Function Attrs: nounwind uwtable
define internal void @generic_dealloc(ptr noundef %0) #0 {
  %2 = getelementptr i8, ptr %0, i64 8
  %.val5 = load ptr, ptr %2, align 8, !tbaa !18
  %3 = getelementptr i8, ptr %0, i64 -16
  %4 = getelementptr i8, ptr %0, i64 -8
  %.val.i = load i64, ptr %4, align 8, !tbaa !113
  %5 = and i64 %.val.i, -4
  %6 = inttoptr i64 %5 to ptr
  %.val9.i = load i64, ptr %3, align 8, !tbaa !114
  %7 = and i64 %.val9.i, -4
  %8 = inttoptr i64 %7 to ptr
  %9 = load i64, ptr %6, align 8, !tbaa !114
  %10 = and i64 %9, 3
  %11 = or disjoint i64 %10, %7
  store i64 %11, ptr %6, align 8, !tbaa !114
  %12 = getelementptr inbounds nuw i8, ptr %8, i64 8
  %13 = load i64, ptr %12, align 8, !tbaa !113
  %14 = and i64 %13, 3
  %15 = or disjoint i64 %14, %5
  store i64 %15, ptr %12, align 8, !tbaa !113
  store i64 0, ptr %3, align 8, !tbaa !114
  %16 = load i64, ptr %4, align 8, !tbaa !113
  %17 = and i64 %16, 1
  store i64 %17, ptr %4, align 8, !tbaa !113
  %18 = getelementptr inbounds nuw i8, ptr %.val5, i64 320
  %19 = load ptr, ptr %18, align 8, !tbaa !116
  tail call void %19(ptr noundef %0) #8
  %20 = load i32, ptr %.val5, align 8, !tbaa !27
  %.not.i = icmp sgt i32 %20, -1
  br i1 %.not.i, label %21, label %Py_DECREF.exit

21:                                               ; preds = %1
  %22 = add nsw i32 %20, -1
  store i32 %22, ptr %.val5, align 8, !tbaa !27
  %23 = icmp eq i32 %22, 0
  br i1 %23, label %24, label %Py_DECREF.exit

24:                                               ; preds = %21
  tail call void @_Py_Dealloc(ptr noundef nonnull %.val5) #8
  br label %Py_DECREF.exit

Py_DECREF.exit:                                   ; preds = %1, %21, %24
  ret void
}